target datalayout = "e-m:e-p270:32:32-p271:32:32-p272:64:64-i64:64-i128:128-f80:128-n8:16:32:64-S128"
target triple = "x86_64-pc-linux-gnu"

@.str.1770 = private unnamed_addr constant [7 x i8] c"%g ppm\00", align 1
@.str.1771 = private unnamed_addr constant [14 x i8] c"Not Available\00", align 1

; Function Attrs: null_pointer_is_valid sspstrong uwtable
define internal void @freq_compensation(ptr noundef %0, i16 noundef signext %1) #1 {
  %3 = alloca ptr, align 8
  %4 = alloca i16, align 2
  store ptr %0, ptr %3, align 8
  store i16 %1, ptr %4, align 2
  %5 = load i16, ptr %4, align 2
  %6 = sext i16 %5 to i32
  %7 = icmp ne i32 %6, -16384
  br i1 %7, label %8, label %17

8:                                                ; preds = %2
  %9 = load ptr, ptr %3, align 8
  %10 = load ptr, ptr %3, align 8
  %11 = call i64 @llvm.objectsize.i64.p0(ptr %10, i1 false, i1 true, i1 true)
  %12 = load i16, ptr %4, align 2
  %13 = sext i16 %12 to i32
  %14 = sitofp i32 %13 to double
  %15 = fmul double 1.000000e-02, %14
  %16 = call i32 (ptr, i64, i32, i64, ptr, ...) @__snprintf_chk(ptr noundef %9, i64 noundef 240, i32 noundef 2, i64 noundef %11, ptr noundef @.str.1770, double noundef %15)
  br label %22

17:                                               ; preds = %2
  %18 = load ptr, ptr %3, align 8
  %19 = load ptr, ptr %3, align 8
  %20 = call i64 @llvm.objectsize.i64.p0(ptr %19, i1 false, i1 true, i1 true)
  %21 = call i32 (ptr, i64, i32, i64, ptr, ...) @__snprintf_chk(ptr noundef %18, i64 noundef 240, i32 noundef 2, i64 noundef %20, ptr noundef @.str.1771)
  br label %22

22:                                               ; preds = %17, %8
  ret void
}