; Function Attrs: nofree null_pointer_is_valid sspstrong uwtable
define internal void @freq_compensation(ptr noundef %0, i16 noundef signext %1) #3 {
  %.not = icmp eq i16 %1, -16384
  br i1 %.not, label %7, label %3

3:                                                ; preds = %2
  %4 = sitofp i16 %1 to double
  %5 = fmul double %4, 1.000000e-02
  %6 = tail call i32 (ptr, i64, i32, i64, ptr, ...) @__snprintf_chk(ptr noundef %0, i64 noundef 240, i32 noundef 2, i64 noundef -1, ptr noundef nonnull @.str.1770, double noundef %5)
  br label %9

7:                                                ; preds = %2
  %8 = tail call i32 (ptr, i64, i32, i64, ptr, ...) @__snprintf_chk(ptr noundef %0, i64 noundef 240, i32 noundef 2, i64 noundef -1, ptr noundef nonnull @.str.1771)
  br label %9

9:                                                ; preds = %7, %3
  ret void
}